; Function Attrs: nounwind uwtable
define dso_local range(i64 0, 2) i64 @bpchareq(ptr noundef readonly captures(none) %0) local_unnamed_addr #0 {
  %2 = getelementptr inbounds nuw i8, ptr %0, i64 32
  %3 = load i64, ptr %2, align 8
  %4 = inttoptr i64 %3 to ptr
  %5 = tail call ptr @pg_detoast_datum_packed(ptr noundef %4) #13
  %6 = getelementptr inbounds nuw i8, ptr %0, i64 48
  %7 = load i64, ptr %6, align 8
  %8 = inttoptr i64 %7 to ptr
  %9 = tail call ptr @pg_detoast_datum_packed(ptr noundef %8) #13
  %10 = getelementptr inbounds nuw i8, ptr %0, i64 24
  %11 = load i32, ptr %10, align 8
  %.not.i = icmp eq i32 %11, 0
  br i1 %.not.i, label %12, label %check_collation_set.exit

12:                                               ; preds = %1
  %13 = tail call zeroext i1 @errstart_cold(i32 noundef 21, ptr noundef null) #14
  tail call void @llvm.assume(i1 %13)
  %14 = tail call i32 @errcode(i32 noundef 34209924) #13
  %15 = tail call i32 (ptr, ...) @errmsg(ptr noundef nonnull @.str.11) #13
  %16 = tail call i32 (ptr, ...) @errhint(ptr noundef nonnull @.str.5) #13
  tail call void @errfinish(ptr noundef nonnull @.str.1, i32 noundef 738, ptr noundef nonnull @__func__.check_collation_set) #13
  unreachable

check_collation_set.exit:                         ; preds = %1
  %17 = load i8, ptr %5, align 1
  %18 = zext i8 %17 to i32
  %19 = and i32 %18, 1
  %.not.i44 = icmp eq i32 %19, 0
  %20 = getelementptr inbounds nuw i8, ptr %5, i64 1
  %21 = icmp eq i8 %17, 1
  br i1 %21, label %22, label %30

22:                                               ; preds = %check_collation_set.exit
  %23 = load i8, ptr %20, align 1
  %24 = icmp eq i8 %23, 1
  %25 = and i8 %23, -2
  %26 = icmp eq i8 %25, 2
  %or.cond.i = or i1 %24, %26
  %27 = icmp eq i8 %23, 18
  %28 = select i1 %27, i32 16, i32 0
  %29 = select i1 %or.cond.i, i32 8, i32 %28
  br label %38

30:                                               ; preds = %check_collation_set.exit
  br i1 %.not.i44, label %34, label %31

31:                                               ; preds = %30
  %32 = lshr i32 %18, 1
  %33 = add nsw i32 %32, -1
  br label %38

34:                                               ; preds = %30
  %35 = load i32, ptr %5, align 4
  %36 = lshr i32 %35, 2
  %37 = add nsw i32 %36, -4
  br label %38

38:                                               ; preds = %34, %31, %22
  %39 = phi i32 [ %29, %22 ], [ %33, %31 ], [ %37, %34 ]
  %40 = getelementptr inbounds nuw i8, ptr %5, i64 4
  %41 = select i1 %.not.i44, ptr %40, ptr %20
  %42 = zext i32 %39 to i64
  %43 = tail call i32 @llvm.smin.i32(i32 %39, i32 0)
  br label %44

44:                                               ; preds = %47, %38
  %indvars.iv.i.i = phi i64 [ %indvars.iv.next.i.i, %47 ], [ %42, %38 ]
  %indvars.iv.next.i.i = add nsw i64 %indvars.iv.i.i, -1
  %45 = and i64 %indvars.iv.next.i.i, 2147483648
  %46 = icmp eq i64 %45, 0
  br i1 %46, label %47, label %bcTruelen.exit

47:                                               ; preds = %44
  %48 = and i64 %indvars.iv.next.i.i, 2147483647
  %49 = getelementptr inbounds nuw i8, ptr %41, i64 %48
  %50 = load i8, ptr %49, align 1
  %.not.i.i = icmp eq i8 %50, 32
  br i1 %.not.i.i, label %44, label %.split.loop.exit.i.i, !llvm.loop !12

.split.loop.exit.i.i:                             ; preds = %47
  %51 = trunc nuw i64 %indvars.iv.i.i to i32
  br label %bcTruelen.exit

bcTruelen.exit:                                   ; preds = %44, %.split.loop.exit.i.i
  %.0.in.lcssa.i.i = phi i32 [ %51, %.split.loop.exit.i.i ], [ %43, %44 ]
  %52 = load i8, ptr %9, align 1
  %53 = zext i8 %52 to i32
  %54 = and i32 %53, 1
  %.not.i45 = icmp eq i32 %54, 0
  %55 = getelementptr inbounds nuw i8, ptr %9, i64 1
  %56 = icmp eq i8 %52, 1
  br i1 %56, label %57, label %65

57:                                               ; preds = %bcTruelen.exit
  %58 = load i8, ptr %55, align 1
  %59 = icmp eq i8 %58, 1
  %60 = and i8 %58, -2
  %61 = icmp eq i8 %60, 2
  %or.cond.i51 = or i1 %59, %61
  %62 = icmp eq i8 %58, 18
  %63 = select i1 %62, i32 16, i32 0
  %64 = select i1 %or.cond.i51, i32 8, i32 %63
  br label %73

65:                                               ; preds = %bcTruelen.exit
  br i1 %.not.i45, label %69, label %66

66:                                               ; preds = %65
  %67 = lshr i32 %53, 1
  %68 = add nsw i32 %67, -1
  br label %73

69:                                               ; preds = %65
  %70 = load i32, ptr %9, align 4
  %71 = lshr i32 %70, 2
  %72 = add nsw i32 %71, -4
  br label %73

73:                                               ; preds = %69, %66, %57
  %74 = phi i32 [ %64, %57 ], [ %68, %66 ], [ %72, %69 ]
  %75 = getelementptr inbounds nuw i8, ptr %9, i64 4
  %76 = select i1 %.not.i45, ptr %75, ptr %55
  %77 = zext i32 %74 to i64
  %78 = tail call i32 @llvm.smin.i32(i32 %74, i32 0)
  br label %79

79:                                               ; preds = %82, %73
  %indvars.iv.i.i46 = phi i64 [ %indvars.iv.next.i.i47, %82 ], [ %77, %73 ]
  %indvars.iv.next.i.i47 = add nsw i64 %indvars.iv.i.i46, -1
  %80 = and i64 %indvars.iv.next.i.i47, 2147483648
  %81 = icmp eq i64 %80, 0
  br i1 %81, label %82, label %bcTruelen.exit52

82:                                               ; preds = %79
  %83 = and i64 %indvars.iv.next.i.i47, 2147483647
  %84 = getelementptr inbounds nuw i8, ptr %76, i64 %83
  %85 = load i8, ptr %84, align 1
  %.not.i.i49 = icmp eq i8 %85, 32
  br i1 %.not.i.i49, label %79, label %.split.loop.exit.i.i50, !llvm.loop !12

.split.loop.exit.i.i50:                           ; preds = %82
  %86 = trunc nuw i64 %indvars.iv.i.i46 to i32
  br label %bcTruelen.exit52

bcTruelen.exit52:                                 ; preds = %79, %.split.loop.exit.i.i50
  %.0.in.lcssa.i.i48 = phi i32 [ %86, %.split.loop.exit.i.i50 ], [ %78, %79 ]
  %87 = tail call ptr @pg_newlocale_from_collation(i32 noundef %11) #13
  %88 = getelementptr inbounds nuw i8, ptr %87, i64 1
  %89 = load i8, ptr %88, align 1, !range !9, !noundef !10
  %90 = trunc nuw i8 %89 to i1
  br i1 %90, label %91, label %101

91:                                               ; preds = %bcTruelen.exit52
  %.not37 = icmp eq i32 %.0.in.lcssa.i.i, %.0.in.lcssa.i.i48
  br i1 %.not37, label %92, label %110

92:                                               ; preds = %91
  %93 = load i8, ptr %5, align 1
  %94 = and i8 %93, 1
  %.not38 = icmp eq i8 %94, 0
  %.v39 = select i1 %.not38, i64 4, i64 1
  %95 = getelementptr inbounds nuw i8, ptr %5, i64 %.v39
  %96 = load i8, ptr %9, align 1
  %97 = and i8 %96, 1
  %.not40 = icmp eq i8 %97, 0
  %.v41 = select i1 %.not40, i64 4, i64 1
  %98 = getelementptr inbounds nuw i8, ptr %9, i64 %.v41
  %99 = sext i32 %.0.in.lcssa.i.i to i64
  %bcmp = tail call i32 @bcmp(ptr nonnull %95, ptr nonnull %98, i64 %99)
  %100 = icmp eq i32 %bcmp, 0
  br label %110

101:                                              ; preds = %bcTruelen.exit52
  %102 = load i8, ptr %5, align 1
  %103 = and i8 %102, 1
  %.not = icmp eq i8 %103, 0
  %.v = select i1 %.not, i64 4, i64 1
  %104 = getelementptr inbounds nuw i8, ptr %5, i64 %.v
  %105 = load i8, ptr %9, align 1
  %106 = and i8 %105, 1
  %.not35 = icmp eq i8 %106, 0
  %.v36 = select i1 %.not35, i64 4, i64 1
  %107 = getelementptr inbounds nuw i8, ptr %9, i64 %.v36
  %108 = tail call i32 @varstr_cmp(ptr noundef nonnull %104, i32 noundef %.0.in.lcssa.i.i, ptr noundef nonnull %107, i32 noundef %.0.in.lcssa.i.i48, i32 noundef %11) #13
  %109 = icmp eq i32 %108, 0
  br label %110

110:                                              ; preds = %91, %101, %92
  %.0.shrunk = phi i1 [ %100, %92 ], [ %109, %101 ], [ false, %91 ]
  %111 = load i64, ptr %2, align 8
  %112 = inttoptr i64 %111 to ptr
  %.not42 = icmp eq ptr %5, %112
  br i1 %.not42, label %114, label %113

113:                                              ; preds = %110
  tail call void @pfree(ptr noundef nonnull %5) #13
  br label %114

114:                                              ; preds = %110, %113
  %115 = load i64, ptr %6, align 8
  %116 = inttoptr i64 %115 to ptr
  %.not43 = icmp eq ptr %9, %116
  br i1 %.not43, label %118, label %117

117:                                              ; preds = %114
  tail call void @pfree(ptr noundef nonnull %9) #13
  br label %118

118:                                              ; preds = %117, %114
  %119 = zext i1 %.0.shrunk to i64
  ret i64 %119
}